target datalayout = "e-m:e-p270:32:32-p271:32:32-p272:64:64-i64:64-i128:128-f80:128-n8:16:32:64-S128"
target triple = "x86_64-pc-linux-gnu"

@.str.3 = private unnamed_addr constant [5 x i8] c"ttcf\00", align 1

; Function Attrs: nounwind uwtable
define i32 @ttLONG(ptr noundef %0) #0 {
  %2 = alloca ptr, align 8
  store ptr %0, ptr %2, align 8, !tbaa !25
  %3 = load ptr, ptr %2, align 8, !tbaa !25
  %4 = getelementptr inbounds i8, ptr %3, i64 0
  %5 = load i8, ptr %4, align 1, !tbaa !13
  %6 = zext i8 %5 to i32
  %7 = shl i32 %6, 24
  %8 = load ptr, ptr %2, align 8, !tbaa !25
  %9 = getelementptr inbounds i8, ptr %8, i64 1
  %10 = load i8, ptr %9, align 1, !tbaa !13
  %11 = zext i8 %10 to i32
  %12 = shl i32 %11, 16
  %13 = add nsw i32 %7, %12
  %14 = load ptr, ptr %2, align 8, !tbaa !25
  %15 = getelementptr inbounds i8, ptr %14, i64 2
  %16 = load i8, ptr %15, align 1, !tbaa !13
  %17 = zext i8 %16 to i32
  %18 = shl i32 %17, 8
  %19 = add nsw i32 %13, %18
  %20 = load ptr, ptr %2, align 8, !tbaa !25
  %21 = getelementptr inbounds i8, ptr %20, i64 3
  %22 = load i8, ptr %21, align 1, !tbaa !13
  %23 = zext i8 %22 to i32
  %24 = add nsw i32 %19, %23
  ret i32 %24
}

; Function Attrs: nounwind uwtable
define i32 @ttULONG(ptr noundef %0) #0 {
  %2 = alloca ptr, align 8
  store ptr %0, ptr %2, align 8, !tbaa !25
  %3 = load ptr, ptr %2, align 8, !tbaa !25
  %4 = getelementptr inbounds i8, ptr %3, i64 0
  %5 = load i8, ptr %4, align 1, !tbaa !13
  %6 = zext i8 %5 to i32
  %7 = shl i32 %6, 24
  %8 = load ptr, ptr %2, align 8, !tbaa !25
  %9 = getelementptr inbounds i8, ptr %8, i64 1
  %10 = load i8, ptr %9, align 1, !tbaa !13
  %11 = zext i8 %10 to i32
  %12 = shl i32 %11, 16
  %13 = add nsw i32 %7, %12
  %14 = load ptr, ptr %2, align 8, !tbaa !25
  %15 = getelementptr inbounds i8, ptr %14, i64 2
  %16 = load i8, ptr %15, align 1, !tbaa !13
  %17 = zext i8 %16 to i32
  %18 = shl i32 %17, 8
  %19 = add nsw i32 %13, %18
  %20 = load ptr, ptr %2, align 8, !tbaa !25
  %21 = getelementptr inbounds i8, ptr %20, i64 3
  %22 = load i8, ptr %21, align 1, !tbaa !13
  %23 = zext i8 %22 to i32
  %24 = add nsw i32 %19, %23
  ret i32 %24
}

; Function Attrs: nounwind uwtable
define i32 @stbtt_GetFontOffsetForIndex_internal(ptr noundef %0, i32 noundef %1) #0 {
  %3 = alloca i32, align 4
  %4 = alloca ptr, align 8
  %5 = alloca i32, align 4
  %6 = alloca i32, align 4
  %7 = alloca i32, align 4
  store ptr %0, ptr %4, align 8, !tbaa !25
  store i32 %1, ptr %5, align 4, !tbaa !14
  %8 = load ptr, ptr %4, align 8, !tbaa !25
  %9 = call i32 @stbtt__isfont(ptr noundef %8)
  %10 = icmp ne i32 %9, 0
  br i1 %10, label %11, label %15

11:                                               ; preds = %2
  %12 = load i32, ptr %5, align 4, !tbaa !14
  %13 = icmp eq i32 %12, 0
  %14 = select i1 %13, i32 0, i32 -1
  store i32 %14, ptr %3, align 4
  br label %76

15:                                               ; preds = %2
  %16 = load ptr, ptr %4, align 8, !tbaa !25
  %17 = getelementptr inbounds i8, ptr %16, i64 0
  %18 = load i8, ptr %17, align 1, !tbaa !13
  %19 = zext i8 %18 to i32
  %20 = load i8, ptr @.str.3, align 1, !tbaa !13
  %21 = sext i8 %20 to i32
  %22 = icmp eq i32 %19, %21
  br i1 %22, label %23, label %75

23:                                               ; preds = %15
  %24 = load ptr, ptr %4, align 8, !tbaa !25
  %25 = getelementptr inbounds i8, ptr %24, i64 1
  %26 = load i8, ptr %25, align 1, !tbaa !13
  %27 = zext i8 %26 to i32
  %28 = load i8, ptr getelementptr inbounds ([5 x i8], ptr @.str.3, i64 0, i64 1), align 1, !tbaa !13
  %29 = sext i8 %28 to i32
  %30 = icmp eq i32 %27, %29
  br i1 %30, label %31, label %75

31:                                               ; preds = %23
  %32 = load ptr, ptr %4, align 8, !tbaa !25
  %33 = getelementptr inbounds i8, ptr %32, i64 2
  %34 = load i8, ptr %33, align 1, !tbaa !13
  %35 = zext i8 %34 to i32
  %36 = load i8, ptr getelementptr inbounds ([5 x i8], ptr @.str.3, i64 0, i64 2), align 1, !tbaa !13
  %37 = sext i8 %36 to i32
  %38 = icmp eq i32 %35, %37
  br i1 %38, label %39, label %75

39:                                               ; preds = %31
  %40 = load ptr, ptr %4, align 8, !tbaa !25
  %41 = getelementptr inbounds i8, ptr %40, i64 3
  %42 = load i8, ptr %41, align 1, !tbaa !13
  %43 = zext i8 %42 to i32
  %44 = load i8, ptr getelementptr inbounds ([5 x i8], ptr @.str.3, i64 0, i64 3), align 1, !tbaa !13
  %45 = sext i8 %44 to i32
  %46 = icmp eq i32 %43, %45
  br i1 %46, label %47, label %75

47:                                               ; preds = %39
  %48 = load ptr, ptr %4, align 8, !tbaa !25
  %49 = getelementptr inbounds i8, ptr %48, i64 4
  %50 = call i32 @ttULONG(ptr noundef %49)
  %51 = icmp eq i32 %50, 65536
  br i1 %51, label %57, label %52

52:                                               ; preds = %47
  %53 = load ptr, ptr %4, align 8, !tbaa !25
  %54 = getelementptr inbounds i8, ptr %53, i64 4
  %55 = call i32 @ttULONG(ptr noundef %54)
  %56 = icmp eq i32 %55, 131072
  br i1 %56, label %57, label %74

57:                                               ; preds = %52, %47
  call void @llvm.lifetime.start.p0(i64 4, ptr %6) #8
  %58 = load ptr, ptr %4, align 8, !tbaa !25
  %59 = getelementptr inbounds i8, ptr %58, i64 8
  %60 = call i32 @ttLONG(ptr noundef %59)
  store i32 %60, ptr %6, align 4, !tbaa !14
  %61 = load i32, ptr %5, align 4, !tbaa !14
  %62 = load i32, ptr %6, align 4, !tbaa !14
  %63 = icmp sge i32 %61, %62
  br i1 %63, label %64, label %65

64:                                               ; preds = %57
  store i32 -1, ptr %3, align 4
  store i32 1, ptr %7, align 4
  br label %73

65:                                               ; preds = %57
  %66 = load ptr, ptr %4, align 8, !tbaa !25
  %67 = getelementptr inbounds i8, ptr %66, i64 12
  %68 = load i32, ptr %5, align 4, !tbaa !14
  %69 = mul nsw i32 %68, 4
  %70 = sext i32 %69 to i64
  %71 = getelementptr inbounds i8, ptr %67, i64 %70
  %72 = call i32 @ttULONG(ptr noundef %71)
  store i32 %72, ptr %3, align 4
  store i32 1, ptr %7, align 4
  br label %73

73:                                               ; preds = %65, %64
  call void @llvm.lifetime.end.p0(i64 4, ptr %6) #8
  br label %76

74:                                               ; preds = %52
  br label %75

75:                                               ; preds = %74, %39, %31, %23, %15
  store i32 -1, ptr %3, align 4
  br label %76

76:                                               ; preds = %75, %73, %11
  %77 = load i32, ptr %3, align 4
  ret i32 %77
}