; Function Attrs: mustprogress nofree norecurse nosync nounwind willreturn memory(argmem: read) uwtable
define i32 @stbtt_GetFontOffsetForIndex_internal(ptr noundef readonly captures(none) %0, i32 noundef %1) local_unnamed_addr #6 {
  %3 = tail call i32 @stbtt__isfont(ptr noundef %0)
  %.not = icmp eq i32 %3, 0
  br i1 %.not, label %7, label %4

4:                                                ; preds = %2
  %5 = icmp ne i32 %1, 0
  %6 = sext i1 %5 to i32
  br label %82

7:                                                ; preds = %2
  %8 = load i8, ptr %0, align 1, !tbaa !12
  %9 = icmp eq i8 %8, 116
  br i1 %9, label %10, label %82

10:                                               ; preds = %7
  %11 = getelementptr inbounds nuw i8, ptr %0, i64 1
  %12 = load i8, ptr %11, align 1, !tbaa !12
  %13 = icmp eq i8 %12, 116
  br i1 %13, label %14, label %82

14:                                               ; preds = %10
  %15 = getelementptr inbounds nuw i8, ptr %0, i64 2
  %16 = load i8, ptr %15, align 1, !tbaa !12
  %17 = icmp eq i8 %16, 99
  br i1 %17, label %18, label %82

18:                                               ; preds = %14
  %19 = getelementptr inbounds nuw i8, ptr %0, i64 3
  %20 = load i8, ptr %19, align 1, !tbaa !12
  %21 = icmp eq i8 %20, 102
  br i1 %21, label %22, label %82

22:                                               ; preds = %18
  %23 = getelementptr inbounds nuw i8, ptr %0, i64 4
  %24 = load i8, ptr %23, align 1, !tbaa !12
  %25 = zext i8 %24 to i32
  %26 = shl nuw i32 %25, 24
  %27 = getelementptr inbounds nuw i8, ptr %0, i64 5
  %28 = load i8, ptr %27, align 1, !tbaa !12
  %29 = zext i8 %28 to i32
  %30 = shl nuw nsw i32 %29, 16
  %31 = or disjoint i32 %30, %26
  %32 = getelementptr inbounds nuw i8, ptr %0, i64 6
  %33 = load i8, ptr %32, align 1, !tbaa !12
  %34 = zext i8 %33 to i32
  %35 = shl nuw nsw i32 %34, 8
  %36 = or disjoint i32 %31, %35
  %37 = getelementptr inbounds nuw i8, ptr %0, i64 7
  %38 = load i8, ptr %37, align 1, !tbaa !12
  %39 = zext i8 %38 to i32
  %40 = or disjoint i32 %36, %39
  switch i32 %40, label %82 [
    i32 65536, label %41
    i32 131072, label %41
  ]

41:                                               ; preds = %22, %22
  %42 = getelementptr inbounds nuw i8, ptr %0, i64 8
  %43 = load i8, ptr %42, align 1, !tbaa !12
  %44 = zext i8 %43 to i32
  %45 = shl nuw i32 %44, 24
  %46 = getelementptr inbounds nuw i8, ptr %0, i64 9
  %47 = load i8, ptr %46, align 1, !tbaa !12
  %48 = zext i8 %47 to i32
  %49 = shl nuw nsw i32 %48, 16
  %50 = or disjoint i32 %49, %45
  %51 = getelementptr inbounds nuw i8, ptr %0, i64 10
  %52 = load i8, ptr %51, align 1, !tbaa !12
  %53 = zext i8 %52 to i32
  %54 = shl nuw nsw i32 %53, 8
  %55 = or disjoint i32 %50, %54
  %56 = getelementptr inbounds nuw i8, ptr %0, i64 11
  %57 = load i8, ptr %56, align 1, !tbaa !12
  %58 = zext i8 %57 to i32
  %59 = or disjoint i32 %55, %58
  %.not14 = icmp slt i32 %1, %59
  br i1 %.not14, label %60, label %82

60:                                               ; preds = %41
  %61 = getelementptr inbounds nuw i8, ptr %0, i64 12
  %62 = shl nsw i32 %1, 2
  %63 = sext i32 %62 to i64
  %64 = getelementptr inbounds i8, ptr %61, i64 %63
  %65 = load i8, ptr %64, align 1, !tbaa !12
  %66 = zext i8 %65 to i32
  %67 = shl nuw i32 %66, 24
  %68 = getelementptr inbounds nuw i8, ptr %64, i64 1
  %69 = load i8, ptr %68, align 1, !tbaa !12
  %70 = zext i8 %69 to i32
  %71 = shl nuw nsw i32 %70, 16
  %72 = or disjoint i32 %71, %67
  %73 = getelementptr inbounds nuw i8, ptr %64, i64 2
  %74 = load i8, ptr %73, align 1, !tbaa !12
  %75 = zext i8 %74 to i32
  %76 = shl nuw nsw i32 %75, 8
  %77 = or disjoint i32 %72, %76
  %78 = getelementptr inbounds nuw i8, ptr %64, i64 3
  %79 = load i8, ptr %78, align 1, !tbaa !12
  %80 = zext i8 %79 to i32
  %81 = or disjoint i32 %77, %80
  br label %82

82:                                               ; preds = %22, %7, %10, %14, %18, %60, %41, %4
  %.0 = phi i32 [ %6, %4 ], [ %81, %60 ], [ -1, %41 ], [ -1, %18 ], [ -1, %14 ], [ -1, %10 ], [ -1, %7 ], [ -1, %22 ]
  ret i32 %.0
}